
a.out:     file format elf32-littleriscv


Disassembly of section .text:

00000000 <UART_check_busy>:
   0:	fe010113          	addi	x2,x2,-32
   4:	00812e23          	sw	x8,28(x2)
   8:	02010413          	addi	x8,x2,32
   c:	000087b7          	lui	x15,0x8
  10:	20878793          	addi	x15,x15,520 # 8208 <__global_pointer$+0x6178>
  14:	fef42623          	sw	x15,-20(x8)
  18:	fec42783          	lw	x15,-20(x8)
  1c:	0007a783          	lw	x15,0(x15)
  20:	00078513          	addi	x10,x15,0
  24:	01c12403          	lw	x8,28(x2)
  28:	02010113          	addi	x2,x2,32
  2c:	00008067          	jalr	x0,0(x1)

00000030 <UART_read_data>:
  30:	fe010113          	addi	x2,x2,-32
  34:	00812e23          	sw	x8,28(x2)
  38:	02010413          	addi	x8,x2,32
  3c:	000087b7          	lui	x15,0x8
  40:	20078793          	addi	x15,x15,512 # 8200 <__global_pointer$+0x6170>
  44:	fef42623          	sw	x15,-20(x8)
  48:	fec42783          	lw	x15,-20(x8)
  4c:	0007a783          	lw	x15,0(x15)
  50:	00078513          	addi	x10,x15,0
  54:	01c12403          	lw	x8,28(x2)
  58:	02010113          	addi	x2,x2,32
  5c:	00008067          	jalr	x0,0(x1)

00000060 <UART_send_byte>:
  60:	fd010113          	addi	x2,x2,-48
  64:	02812623          	sw	x8,44(x2)
  68:	03010413          	addi	x8,x2,48
  6c:	fca42e23          	sw	x10,-36(x8)
  70:	000087b7          	lui	x15,0x8
  74:	20478793          	addi	x15,x15,516 # 8204 <__global_pointer$+0x6174>
  78:	fef42623          	sw	x15,-20(x8)
  7c:	fec42783          	lw	x15,-20(x8)
  80:	fdc42703          	lw	x14,-36(x8)
  84:	00e7a023          	sw	x14,0(x15)
  88:	00000013          	addi	x0,x0,0
  8c:	02c12403          	lw	x8,44(x2)
  90:	03010113          	addi	x2,x2,48
  94:	00008067          	jalr	x0,0(x1)

00000098 <UART_send_word>:
  98:	fd010113          	addi	x2,x2,-48
  9c:	02812623          	sw	x8,44(x2)
  a0:	03010413          	addi	x8,x2,48
  a4:	fca42e23          	sw	x10,-36(x8)
  a8:	000087b7          	lui	x15,0x8
  ac:	20478793          	addi	x15,x15,516 # 8204 <__global_pointer$+0x6174>
  b0:	fef42623          	sw	x15,-20(x8)
  b4:	fdc42783          	lw	x15,-36(x8)
  b8:	4187d713          	srai	x14,x15,0x18
  bc:	fec42783          	lw	x15,-20(x8)
  c0:	00e7a023          	sw	x14,0(x15)
  c4:	fdc42783          	lw	x15,-36(x8)
  c8:	4107d713          	srai	x14,x15,0x10
  cc:	fec42783          	lw	x15,-20(x8)
  d0:	00e7a023          	sw	x14,0(x15)
  d4:	fdc42783          	lw	x15,-36(x8)
  d8:	4087d713          	srai	x14,x15,0x8
  dc:	fec42783          	lw	x15,-20(x8)
  e0:	00e7a023          	sw	x14,0(x15)
  e4:	fec42783          	lw	x15,-20(x8)
  e8:	fdc42703          	lw	x14,-36(x8)
  ec:	00e7a023          	sw	x14,0(x15)
  f0:	00000013          	addi	x0,x0,0
  f4:	02c12403          	lw	x8,44(x2)
  f8:	03010113          	addi	x2,x2,48
  fc:	00008067          	jalr	x0,0(x1)

00000100 <UART_check>:
 100:	fe010113          	addi	x2,x2,-32
 104:	00812e23          	sw	x8,28(x2)
 108:	02010413          	addi	x8,x2,32
 10c:	000087b7          	lui	x15,0x8
 110:	20c78793          	addi	x15,x15,524 # 820c <__global_pointer$+0x617c>
 114:	fef42623          	sw	x15,-20(x8)
 118:	fec42783          	lw	x15,-20(x8)
 11c:	0007a783          	lw	x15,0(x15)
 120:	00078513          	addi	x10,x15,0
 124:	01c12403          	lw	x8,28(x2)
 128:	02010113          	addi	x2,x2,32
 12c:	00008067          	jalr	x0,0(x1)

00000130 <delay_ms>:
 130:	fd010113          	addi	x2,x2,-48
 134:	02812623          	sw	x8,44(x2)
 138:	03010413          	addi	x8,x2,48
 13c:	fca42e23          	sw	x10,-36(x8)
 140:	fdc42703          	lw	x14,-36(x8)
 144:	00070793          	addi	x15,x14,0
 148:	00579793          	slli	x15,x15,0x5
 14c:	40e787b3          	sub	x15,x15,x14
 150:	00279793          	slli	x15,x15,0x2
 154:	40e787b3          	sub	x15,x15,x14
 158:	00279793          	slli	x15,x15,0x2
 15c:	40e787b3          	sub	x15,x15,x14
 160:	00179793          	slli	x15,x15,0x1
 164:	fef42423          	sw	x15,-24(x8)
 168:	fe042623          	sw	x0,-20(x8)
 16c:	0100006f          	jal	x0,17c <delay_ms+0x4c>
 170:	fec42783          	lw	x15,-20(x8)
 174:	00178793          	addi	x15,x15,1
 178:	fef42623          	sw	x15,-20(x8)
 17c:	fec42703          	lw	x14,-20(x8)
 180:	fe842783          	lw	x15,-24(x8)
 184:	fef746e3          	blt	x14,x15,170 <delay_ms+0x40>
 188:	00000013          	addi	x0,x0,0
 18c:	02c12403          	lw	x8,44(x2)
 190:	03010113          	addi	x2,x2,48
 194:	00008067          	jalr	x0,0(x1)

00000198 <delay_us>:
 198:	fd010113          	addi	x2,x2,-48
 19c:	02812623          	sw	x8,44(x2)
 1a0:	03010413          	addi	x8,x2,48
 1a4:	fca42e23          	sw	x10,-36(x8)
 1a8:	fdc42783          	lw	x15,-36(x8)
 1ac:	00179793          	slli	x15,x15,0x1
 1b0:	fef42423          	sw	x15,-24(x8)
 1b4:	fe042623          	sw	x0,-20(x8)
 1b8:	0100006f          	jal	x0,1c8 <delay_us+0x30>
 1bc:	fec42783          	lw	x15,-20(x8)
 1c0:	00178793          	addi	x15,x15,1
 1c4:	fef42623          	sw	x15,-20(x8)
 1c8:	fec42703          	lw	x14,-20(x8)
 1cc:	fe842783          	lw	x15,-24(x8)
 1d0:	fef746e3          	blt	x14,x15,1bc <delay_us+0x24>
 1d4:	00000013          	addi	x0,x0,0
 1d8:	02c12403          	lw	x8,44(x2)
 1dc:	03010113          	addi	x2,x2,48
 1e0:	00008067          	jalr	x0,0(x1)

000001e4 <delay>:
 1e4:	fd010113          	addi	x2,x2,-48
 1e8:	02812623          	sw	x8,44(x2)
 1ec:	03010413          	addi	x8,x2,48
 1f0:	fca42e23          	sw	x10,-36(x8)
 1f4:	fe042623          	sw	x0,-20(x8)
 1f8:	0100006f          	jal	x0,208 <delay+0x24>
 1fc:	fec42783          	lw	x15,-20(x8)
 200:	00178793          	addi	x15,x15,1
 204:	fef42623          	sw	x15,-20(x8)
 208:	fec42703          	lw	x14,-20(x8)
 20c:	fdc42783          	lw	x15,-36(x8)
 210:	fef746e3          	blt	x14,x15,1fc <delay+0x18>
 214:	00000013          	addi	x0,x0,0
 218:	02c12403          	lw	x8,44(x2)
 21c:	03010113          	addi	x2,x2,48
 220:	00008067          	jalr	x0,0(x1)

00000224 <set_led>:
 224:	fd010113          	addi	x2,x2,-48
 228:	02812623          	sw	x8,44(x2)
 22c:	03010413          	addi	x8,x2,48
 230:	fca42e23          	sw	x10,-36(x8)
 234:	000087b7          	lui	x15,0x8
 238:	30078793          	addi	x15,x15,768 # 8300 <__global_pointer$+0x6270>
 23c:	fef42623          	sw	x15,-20(x8)
 240:	fec42783          	lw	x15,-20(x8)
 244:	fdc42703          	lw	x14,-36(x8)
 248:	00e7a023          	sw	x14,0(x15)
 24c:	00000013          	addi	x0,x0,0
 250:	02c12403          	lw	x8,44(x2)
 254:	03010113          	addi	x2,x2,48
 258:	00008067          	jalr	x0,0(x1)

0000025c <ETHERNET_send_data>:
 25c:	fd010113          	addi	x2,x2,-48
 260:	02812623          	sw	x8,44(x2)
 264:	03010413          	addi	x8,x2,48
 268:	fca42e23          	sw	x10,-36(x8)
 26c:	fcb42c23          	sw	x11,-40(x8)
 270:	fcc42a23          	sw	x12,-44(x8)
 274:	fdc42703          	lw	x14,-36(x8)
 278:	00100793          	addi	x15,x0,1
 27c:	00f71863          	bne	x14,x15,28c <ETHERNET_send_data+0x30>
 280:	000087b7          	lui	x15,0x8
 284:	fef42623          	sw	x15,-20(x8)
 288:	0100006f          	jal	x0,298 <ETHERNET_send_data+0x3c>
 28c:	000087b7          	lui	x15,0x8
 290:	10078793          	addi	x15,x15,256 # 8100 <__global_pointer$+0x6070>
 294:	fef42623          	sw	x15,-20(x8)
 298:	a0a017b7          	lui	x15,0xa0a01
 29c:	b0878793          	addi	x15,x15,-1272 # a0a00b08 <__global_pointer$+0xa09fea78>
 2a0:	fef42223          	sw	x15,-28(x8)
 2a4:	fe442783          	lw	x15,-28(x8)
 2a8:	04000713          	addi	x14,x0,64
 2ac:	00e7a023          	sw	x14,0(x15)
 2b0:	fd442783          	lw	x15,-44(x8)
 2b4:	0027d793          	srli	x15,x15,0x2
 2b8:	fef42023          	sw	x15,-32(x8)
 2bc:	fe042423          	sw	x0,-24(x8)
 2c0:	0600006f          	jal	x0,320 <ETHERNET_send_data+0xc4>
 2c4:	fe842703          	lw	x14,-24(x8)
 2c8:	fe042783          	lw	x15,-32(x8)
 2cc:	02f71463          	bne	x14,x15,2f4 <ETHERNET_send_data+0x98>
 2d0:	fe842783          	lw	x15,-24(x8)
 2d4:	00279793          	slli	x15,x15,0x2
 2d8:	fd842703          	lw	x14,-40(x8)
 2dc:	00f707b3          	add	x15,x14,x15
 2e0:	0007a783          	lw	x15,0(x15)
 2e4:	00078713          	addi	x14,x15,0
 2e8:	fe442783          	lw	x15,-28(x8)
 2ec:	00e7a023          	sw	x14,0(x15)
 2f0:	0240006f          	jal	x0,314 <ETHERNET_send_data+0xb8>
 2f4:	fe842783          	lw	x15,-24(x8)
 2f8:	00279793          	slli	x15,x15,0x2
 2fc:	fd842703          	lw	x14,-40(x8)
 300:	00f707b3          	add	x15,x14,x15
 304:	0007a783          	lw	x15,0(x15)
 308:	00078713          	addi	x14,x15,0
 30c:	fec42783          	lw	x15,-20(x8)
 310:	00e7a023          	sw	x14,0(x15)
 314:	fe842783          	lw	x15,-24(x8)
 318:	00178793          	addi	x15,x15,1
 31c:	fef42423          	sw	x15,-24(x8)
 320:	fe842703          	lw	x14,-24(x8)
 324:	fe042783          	lw	x15,-32(x8)
 328:	f8e7dee3          	bge	x15,x14,2c4 <ETHERNET_send_data+0x68>
 32c:	00000013          	addi	x0,x0,0
 330:	02c12403          	lw	x8,44(x2)
 334:	03010113          	addi	x2,x2,48
 338:	00008067          	jalr	x0,0(x1)

0000033c <ETHERNET_read_data>:
 33c:	fc010113          	addi	x2,x2,-64
 340:	02812e23          	sw	x8,60(x2)
 344:	04010413          	addi	x8,x2,64
 348:	fca42623          	sw	x10,-52(x8)
 34c:	fcb42423          	sw	x11,-56(x8)
 350:	fcc42703          	lw	x14,-52(x8)
 354:	00100793          	addi	x15,x0,1
 358:	00f71a63          	bne	x14,x15,36c <ETHERNET_read_data+0x30>
 35c:	000087b7          	lui	x15,0x8
 360:	00878793          	addi	x15,x15,8 # 8008 <__global_pointer$+0x5f78>
 364:	fef42623          	sw	x15,-20(x8)
 368:	0100006f          	jal	x0,378 <ETHERNET_read_data+0x3c>
 36c:	000087b7          	lui	x15,0x8
 370:	10878793          	addi	x15,x15,264 # 8108 <__global_pointer$+0x6078>
 374:	fef42623          	sw	x15,-20(x8)
 378:	a0a017b7          	lui	x15,0xa0a01
 37c:	b0878793          	addi	x15,x15,-1272 # a0a00b08 <__global_pointer$+0xa09fea78>
 380:	fef42223          	sw	x15,-28(x8)
 384:	fe442783          	lw	x15,-28(x8)
 388:	0007a783          	lw	x15,0(x15)
 38c:	fef42023          	sw	x15,-32(x8)
 390:	fe042423          	sw	x0,-24(x8)
 394:	fec42783          	lw	x15,-20(x8)
 398:	0007a783          	lw	x15,0(x15)
 39c:	fcf42e23          	sw	x15,-36(x8)
 3a0:	fdc42703          	lw	x14,-36(x8)
 3a4:	a0a017b7          	lui	x15,0xa0a01
 3a8:	b0878793          	addi	x15,x15,-1272 # a0a00b08 <__global_pointer$+0xa09fea78>
 3ac:	02f70663          	beq	x14,x15,3d8 <ETHERNET_read_data+0x9c>
 3b0:	fe842783          	lw	x15,-24(x8)
 3b4:	00279793          	slli	x15,x15,0x2
 3b8:	fc842703          	lw	x14,-56(x8)
 3bc:	00f707b3          	add	x15,x14,x15
 3c0:	fdc42703          	lw	x14,-36(x8)
 3c4:	00e7a023          	sw	x14,0(x15)
 3c8:	fe842783          	lw	x15,-24(x8)
 3cc:	00178793          	addi	x15,x15,1
 3d0:	fef42423          	sw	x15,-24(x8)
 3d4:	fc1ff06f          	jal	x0,394 <ETHERNET_read_data+0x58>
 3d8:	00000013          	addi	x0,x0,0
 3dc:	03c12403          	lw	x8,60(x2)
 3e0:	04010113          	addi	x2,x2,64
 3e4:	00008067          	jalr	x0,0(x1)

000003e8 <ETHERNET_check_done>:
 3e8:	fd010113          	addi	x2,x2,-48
 3ec:	02812623          	sw	x8,44(x2)
 3f0:	03010413          	addi	x8,x2,48
 3f4:	fca42e23          	sw	x10,-36(x8)
 3f8:	fdc42703          	lw	x14,-36(x8)
 3fc:	00100793          	addi	x15,x0,1
 400:	00f71a63          	bne	x14,x15,414 <ETHERNET_check_done+0x2c>
 404:	000087b7          	lui	x15,0x8
 408:	00478793          	addi	x15,x15,4 # 8004 <__global_pointer$+0x5f74>
 40c:	fef42623          	sw	x15,-20(x8)
 410:	0100006f          	jal	x0,420 <ETHERNET_check_done+0x38>
 414:	000087b7          	lui	x15,0x8
 418:	10478793          	addi	x15,x15,260 # 8104 <__global_pointer$+0x6074>
 41c:	fef42623          	sw	x15,-20(x8)
 420:	fec42783          	lw	x15,-20(x8)
 424:	0007a783          	lw	x15,0(x15)
 428:	00078513          	addi	x10,x15,0
 42c:	02c12403          	lw	x8,44(x2)
 430:	03010113          	addi	x2,x2,48
 434:	00008067          	jalr	x0,0(x1)

00000438 <ETHERNET_data_count>:
 438:	fd010113          	addi	x2,x2,-48
 43c:	02812623          	sw	x8,44(x2)
 440:	03010413          	addi	x8,x2,48
 444:	fca42e23          	sw	x10,-36(x8)
 448:	fdc42703          	lw	x14,-36(x8)
 44c:	00100793          	addi	x15,x0,1
 450:	00f71a63          	bne	x14,x15,464 <ETHERNET_data_count+0x2c>
 454:	000087b7          	lui	x15,0x8
 458:	01078793          	addi	x15,x15,16 # 8010 <__global_pointer$+0x5f80>
 45c:	fef42623          	sw	x15,-20(x8)
 460:	0100006f          	jal	x0,470 <ETHERNET_data_count+0x38>
 464:	000087b7          	lui	x15,0x8
 468:	11078793          	addi	x15,x15,272 # 8110 <__global_pointer$+0x6080>
 46c:	fef42623          	sw	x15,-20(x8)
 470:	fec42783          	lw	x15,-20(x8)
 474:	0007a783          	lw	x15,0(x15)
 478:	00078513          	addi	x10,x15,0
 47c:	02c12403          	lw	x8,44(x2)
 480:	03010113          	addi	x2,x2,48
 484:	00008067          	jalr	x0,0(x1)

00000488 <ETHERNET_protocol>:
 488:	fd010113          	addi	x2,x2,-48
 48c:	02812623          	sw	x8,44(x2)
 490:	03010413          	addi	x8,x2,48
 494:	fca42e23          	sw	x10,-36(x8)
 498:	fdc42703          	lw	x14,-36(x8)
 49c:	00100793          	addi	x15,x0,1
 4a0:	00f71a63          	bne	x14,x15,4b4 <ETHERNET_protocol+0x2c>
 4a4:	000087b7          	lui	x15,0x8
 4a8:	01478793          	addi	x15,x15,20 # 8014 <__global_pointer$+0x5f84>
 4ac:	fef42623          	sw	x15,-20(x8)
 4b0:	0100006f          	jal	x0,4c0 <ETHERNET_protocol+0x38>
 4b4:	000087b7          	lui	x15,0x8
 4b8:	11478793          	addi	x15,x15,276 # 8114 <__global_pointer$+0x6084>
 4bc:	fef42623          	sw	x15,-20(x8)
 4c0:	fec42783          	lw	x15,-20(x8)
 4c4:	0007a783          	lw	x15,0(x15)
 4c8:	00078513          	addi	x10,x15,0
 4cc:	02c12403          	lw	x8,44(x2)
 4d0:	03010113          	addi	x2,x2,48
 4d4:	00008067          	jalr	x0,0(x1)

000004d8 <ETHERNET_rx_ready>:
 4d8:	fd010113          	addi	x2,x2,-48
 4dc:	02812623          	sw	x8,44(x2)
 4e0:	03010413          	addi	x8,x2,48
 4e4:	fca42e23          	sw	x10,-36(x8)
 4e8:	fdc42703          	lw	x14,-36(x8)
 4ec:	00100793          	addi	x15,x0,1
 4f0:	00f71a63          	bne	x14,x15,504 <ETHERNET_rx_ready+0x2c>
 4f4:	000087b7          	lui	x15,0x8
 4f8:	00c78793          	addi	x15,x15,12 # 800c <__global_pointer$+0x5f7c>
 4fc:	fef42623          	sw	x15,-20(x8)
 500:	0100006f          	jal	x0,510 <ETHERNET_rx_ready+0x38>
 504:	000087b7          	lui	x15,0x8
 508:	10c78793          	addi	x15,x15,268 # 810c <__global_pointer$+0x607c>
 50c:	fef42623          	sw	x15,-20(x8)
 510:	fec42783          	lw	x15,-20(x8)
 514:	0007a783          	lw	x15,0(x15)
 518:	00078513          	addi	x10,x15,0
 51c:	02c12403          	lw	x8,44(x2)
 520:	03010113          	addi	x2,x2,48
 524:	00008067          	jalr	x0,0(x1)

00000528 <DM_set_reg>:
 528:	fd010113          	addi	x2,x2,-48
 52c:	02812623          	sw	x8,44(x2)
 530:	03010413          	addi	x8,x2,48
 534:	fca42e23          	sw	x10,-36(x8)
 538:	fcb42c23          	sw	x11,-40(x8)
 53c:	fcc42a23          	sw	x12,-44(x8)
 540:	fdc42703          	lw	x14,-36(x8)
 544:	00100793          	addi	x15,x0,1
 548:	00f71a63          	bne	x14,x15,55c <DM_set_reg+0x34>
 54c:	000087b7          	lui	x15,0x8
 550:	01878793          	addi	x15,x15,24 # 8018 <__global_pointer$+0x5f88>
 554:	fef42623          	sw	x15,-20(x8)
 558:	0100006f          	jal	x0,568 <DM_set_reg+0x40>
 55c:	000087b7          	lui	x15,0x8
 560:	11878793          	addi	x15,x15,280 # 8118 <__global_pointer$+0x6088>
 564:	fef42623          	sw	x15,-20(x8)
 568:	fdc42703          	lw	x14,-36(x8)
 56c:	00100793          	addi	x15,x0,1
 570:	00f71a63          	bne	x14,x15,584 <DM_set_reg+0x5c>
 574:	000087b7          	lui	x15,0x8
 578:	01c78793          	addi	x15,x15,28 # 801c <__global_pointer$+0x5f8c>
 57c:	fef42423          	sw	x15,-24(x8)
 580:	0100006f          	jal	x0,590 <DM_set_reg+0x68>
 584:	000087b7          	lui	x15,0x8
 588:	11c78793          	addi	x15,x15,284 # 811c <__global_pointer$+0x608c>
 58c:	fef42423          	sw	x15,-24(x8)
 590:	fd442703          	lw	x14,-44(x8)
 594:	fe842783          	lw	x15,-24(x8)
 598:	00e7a023          	sw	x14,0(x15)
 59c:	fd842703          	lw	x14,-40(x8)
 5a0:	fec42783          	lw	x15,-20(x8)
 5a4:	00e7a023          	sw	x14,0(x15)
 5a8:	00000013          	addi	x0,x0,0
 5ac:	02c12403          	lw	x8,44(x2)
 5b0:	03010113          	addi	x2,x2,48
 5b4:	00008067          	jalr	x0,0(x1)

000005b8 <DM_busy>:
 5b8:	fd010113          	addi	x2,x2,-48
 5bc:	02812623          	sw	x8,44(x2)
 5c0:	03010413          	addi	x8,x2,48
 5c4:	fca42e23          	sw	x10,-36(x8)
 5c8:	fdc42703          	lw	x14,-36(x8)
 5cc:	00100793          	addi	x15,x0,1
 5d0:	00f71a63          	bne	x14,x15,5e4 <DM_busy+0x2c>
 5d4:	000087b7          	lui	x15,0x8
 5d8:	02478793          	addi	x15,x15,36 # 8024 <__global_pointer$+0x5f94>
 5dc:	fef42623          	sw	x15,-20(x8)
 5e0:	0100006f          	jal	x0,5f0 <DM_busy+0x38>
 5e4:	000087b7          	lui	x15,0x8
 5e8:	12478793          	addi	x15,x15,292 # 8124 <__global_pointer$+0x6094>
 5ec:	fef42623          	sw	x15,-20(x8)
 5f0:	fec42783          	lw	x15,-20(x8)
 5f4:	0007a783          	lw	x15,0(x15)
 5f8:	00078513          	addi	x10,x15,0
 5fc:	02c12403          	lw	x8,44(x2)
 600:	03010113          	addi	x2,x2,48
 604:	00008067          	jalr	x0,0(x1)

00000608 <DM_get_reg>:
 608:	fd010113          	addi	x2,x2,-48
 60c:	02112623          	sw	x1,44(x2)
 610:	02812423          	sw	x8,40(x2)
 614:	03010413          	addi	x8,x2,48
 618:	fca42e23          	sw	x10,-36(x8)
 61c:	fcb42c23          	sw	x11,-40(x8)
 620:	fdc42703          	lw	x14,-36(x8)
 624:	00100793          	addi	x15,x0,1
 628:	00f71a63          	bne	x14,x15,63c <DM_get_reg+0x34>
 62c:	000087b7          	lui	x15,0x8
 630:	01878793          	addi	x15,x15,24 # 8018 <__global_pointer$+0x5f88>
 634:	fef42423          	sw	x15,-24(x8)
 638:	0100006f          	jal	x0,648 <DM_get_reg+0x40>
 63c:	000087b7          	lui	x15,0x8
 640:	11878793          	addi	x15,x15,280 # 8118 <__global_pointer$+0x6088>
 644:	fef42423          	sw	x15,-24(x8)
 648:	fdc42503          	lw	x10,-36(x8)
 64c:	f6dff0ef          	jal	x1,5b8 <DM_busy>
 650:	00050793          	addi	x15,x10,0
 654:	00078463          	beq	x15,x0,65c <DM_get_reg+0x54>
 658:	ff1ff06f          	jal	x0,648 <DM_get_reg+0x40>
 65c:	00000013          	addi	x0,x0,0
 660:	fdc42703          	lw	x14,-36(x8)
 664:	00100793          	addi	x15,x0,1
 668:	00f71a63          	bne	x14,x15,67c <DM_get_reg+0x74>
 66c:	000087b7          	lui	x15,0x8
 670:	02078793          	addi	x15,x15,32 # 8020 <__global_pointer$+0x5f90>
 674:	fef42623          	sw	x15,-20(x8)
 678:	0100006f          	jal	x0,688 <DM_get_reg+0x80>
 67c:	000087b7          	lui	x15,0x8
 680:	12078793          	addi	x15,x15,288 # 8120 <__global_pointer$+0x6090>
 684:	fef42623          	sw	x15,-20(x8)
 688:	fec42783          	lw	x15,-20(x8)
 68c:	0007a783          	lw	x15,0(x15)
 690:	00078513          	addi	x10,x15,0
 694:	02c12083          	lw	x1,44(x2)
 698:	02812403          	lw	x8,40(x2)
 69c:	03010113          	addi	x2,x2,48
 6a0:	00008067          	jalr	x0,0(x1)

000006a4 <bootloader>:
 6a4:	fd010113          	addi	x2,x2,-48
 6a8:	02112623          	sw	x1,44(x2)
 6ac:	02812423          	sw	x8,40(x2)
 6b0:	02912223          	sw	x9,36(x2)
 6b4:	03010413          	addi	x8,x2,48
 6b8:	6e800793          	addi	x15,x0,1768
 6bc:	fef42423          	sw	x15,-24(x8)
 6c0:	a41ff0ef          	jal	x1,100 <UART_check>
 6c4:	00050793          	addi	x15,x10,0
 6c8:	00079463          	bne	x15,x0,6d0 <bootloader+0x2c>
 6cc:	ff5ff06f          	jal	x0,6c0 <bootloader+0x1c>
 6d0:	00000013          	addi	x0,x0,0
 6d4:	95dff0ef          	jal	x1,30 <UART_read_data>
 6d8:	fea42223          	sw	x10,-28(x8)
 6dc:	a25ff0ef          	jal	x1,100 <UART_check>
 6e0:	00050793          	addi	x15,x10,0
 6e4:	00079463          	bne	x15,x0,6ec <bootloader+0x48>
 6e8:	ff5ff06f          	jal	x0,6dc <bootloader+0x38>
 6ec:	00000013          	addi	x0,x0,0
 6f0:	fe442783          	lw	x15,-28(x8)
 6f4:	00879493          	slli	x9,x15,0x8
 6f8:	939ff0ef          	jal	x1,30 <UART_read_data>
 6fc:	00050793          	addi	x15,x10,0
 700:	00f487b3          	add	x15,x9,x15
 704:	fef42223          	sw	x15,-28(x8)
 708:	9f9ff0ef          	jal	x1,100 <UART_check>
 70c:	00050793          	addi	x15,x10,0
 710:	00079463          	bne	x15,x0,718 <bootloader+0x74>
 714:	ff5ff06f          	jal	x0,708 <bootloader+0x64>
 718:	00000013          	addi	x0,x0,0
 71c:	fe442783          	lw	x15,-28(x8)
 720:	00879493          	slli	x9,x15,0x8
 724:	90dff0ef          	jal	x1,30 <UART_read_data>
 728:	00050793          	addi	x15,x10,0
 72c:	00f487b3          	add	x15,x9,x15
 730:	fef42223          	sw	x15,-28(x8)
 734:	9cdff0ef          	jal	x1,100 <UART_check>
 738:	00050793          	addi	x15,x10,0
 73c:	00079463          	bne	x15,x0,744 <bootloader+0xa0>
 740:	ff5ff06f          	jal	x0,734 <bootloader+0x90>
 744:	00000013          	addi	x0,x0,0
 748:	fe442783          	lw	x15,-28(x8)
 74c:	00879493          	slli	x9,x15,0x8
 750:	8e1ff0ef          	jal	x1,30 <UART_read_data>
 754:	00050793          	addi	x15,x10,0
 758:	00f487b3          	add	x15,x9,x15
 75c:	fef42223          	sw	x15,-28(x8)
 760:	fe842783          	lw	x15,-24(x8)
 764:	fef42623          	sw	x15,-20(x8)
 768:	0c40006f          	jal	x0,82c <bootloader+0x188>
 76c:	fec42783          	lw	x15,-20(x8)
 770:	fef42023          	sw	x15,-32(x8)
 774:	98dff0ef          	jal	x1,100 <UART_check>
 778:	00050793          	addi	x15,x10,0
 77c:	00079463          	bne	x15,x0,784 <bootloader+0xe0>
 780:	ff5ff06f          	jal	x0,774 <bootloader+0xd0>
 784:	00000013          	addi	x0,x0,0
 788:	8a9ff0ef          	jal	x1,30 <UART_read_data>
 78c:	fca42e23          	sw	x10,-36(x8)
 790:	971ff0ef          	jal	x1,100 <UART_check>
 794:	00050793          	addi	x15,x10,0
 798:	00079463          	bne	x15,x0,7a0 <bootloader+0xfc>
 79c:	ff5ff06f          	jal	x0,790 <bootloader+0xec>
 7a0:	00000013          	addi	x0,x0,0
 7a4:	fdc42783          	lw	x15,-36(x8)
 7a8:	00879493          	slli	x9,x15,0x8
 7ac:	885ff0ef          	jal	x1,30 <UART_read_data>
 7b0:	00050793          	addi	x15,x10,0
 7b4:	00f487b3          	add	x15,x9,x15
 7b8:	fcf42e23          	sw	x15,-36(x8)
 7bc:	945ff0ef          	jal	x1,100 <UART_check>
 7c0:	00050793          	addi	x15,x10,0
 7c4:	00079463          	bne	x15,x0,7cc <bootloader+0x128>
 7c8:	ff5ff06f          	jal	x0,7bc <bootloader+0x118>
 7cc:	00000013          	addi	x0,x0,0
 7d0:	fdc42783          	lw	x15,-36(x8)
 7d4:	00879493          	slli	x9,x15,0x8
 7d8:	859ff0ef          	jal	x1,30 <UART_read_data>
 7dc:	00050793          	addi	x15,x10,0
 7e0:	00f487b3          	add	x15,x9,x15
 7e4:	fcf42e23          	sw	x15,-36(x8)
 7e8:	919ff0ef          	jal	x1,100 <UART_check>
 7ec:	00050793          	addi	x15,x10,0
 7f0:	00079463          	bne	x15,x0,7f8 <bootloader+0x154>
 7f4:	ff5ff06f          	jal	x0,7e8 <bootloader+0x144>
 7f8:	00000013          	addi	x0,x0,0
 7fc:	fdc42783          	lw	x15,-36(x8)
 800:	00879493          	slli	x9,x15,0x8
 804:	82dff0ef          	jal	x1,30 <UART_read_data>
 808:	00050793          	addi	x15,x10,0
 80c:	00f487b3          	add	x15,x9,x15
 810:	fcf42e23          	sw	x15,-36(x8)
 814:	fe042783          	lw	x15,-32(x8)
 818:	fdc42703          	lw	x14,-36(x8)
 81c:	00e7a023          	sw	x14,0(x15)
 820:	fec42783          	lw	x15,-20(x8)
 824:	00478793          	addi	x15,x15,4
 828:	fef42623          	sw	x15,-20(x8)
 82c:	fec42703          	lw	x14,-20(x8)
 830:	fe442783          	lw	x15,-28(x8)
 834:	f2e7dce3          	bge	x15,x14,76c <bootloader+0xc8>
 838:	01c0006f          	jal	x0,854 <main>
 83c:	00000013          	addi	x0,x0,0
 840:	02c12083          	lw	x1,44(x2)
 844:	02812403          	lw	x8,40(x2)
 848:	02412483          	lw	x9,36(x2)
 84c:	03010113          	addi	x2,x2,48
 850:	00008067          	jalr	x0,0(x1)

00000854 <main>:
 854:	ff010113          	addi	x2,x2,-16
 858:	00112623          	sw	x1,12(x2)
 85c:	00812423          	sw	x8,8(x2)
 860:	01010413          	addi	x8,x2,16
 864:	0000b7b7          	lui	x15,0xb
 868:	bcd78613          	addi	x12,x15,-1075 # abcd <__global_pointer$+0x8b3d>
 86c:	1aa00593          	addi	x11,x0,426
 870:	00100513          	addi	x10,x0,1
 874:	cb5ff0ef          	jal	x1,528 <DM_set_reg>
 878:	00000013          	addi	x0,x0,0
 87c:	00078513          	addi	x10,x15,0
 880:	00c12083          	lw	x1,12(x2)
 884:	00812403          	lw	x8,8(x2)
 888:	01010113          	addi	x2,x2,16
 88c:	00008067          	jalr	x0,0(x1)
